; Function Attrs: mustprogress uwtable
define hidden noundef ptr @_ZN13pdecl_manager14register_psortEP5psort(ptr noundef nonnull align 8 dereferenceable(192) %this, ptr noundef %n) local_unnamed_addr #3 align 2 {
entry:
  %temp.i.i = alloca ptr, align 8
  %et.i = alloca ptr, align 8
  %m_table = getelementptr inbounds i8, ptr %this, i64 56
  call void @llvm.lifetime.start.p0(i64 8, ptr nonnull %et.i)
  call void @llvm.lifetime.start.p0(i64 8, ptr nonnull %temp.i.i)
  store ptr %n, ptr %temp.i.i, align 8
  %call.i.i = call noundef zeroext i1 @_ZN14core_hashtableI14ptr_hash_entryI5psortE15psort_hash_proc13psort_eq_procE24insert_if_not_there_coreEOPS1_RPS2_(ptr noundef nonnull align 8 dereferenceable(20) %m_table, ptr noundef nonnull align 8 dereferenceable(8) %temp.i.i, ptr noundef nonnull align 8 dereferenceable(8) %et.i)
  call void @llvm.lifetime.end.p0(i64 8, ptr nonnull %temp.i.i)
  %0 = load ptr, ptr %et.i, align 8
  %m_ptr.i.i = getelementptr inbounds i8, ptr %0, i64 8
  call void @llvm.lifetime.end.p0(i64 8, ptr nonnull %et.i)
  %1 = load ptr, ptr %m_ptr.i.i, align 8
  %cmp.not = icmp eq ptr %1, %n
  br i1 %cmp.not, label %if.end, label %if.then

if.then:                                          ; preds = %entry
  %vtable.i = load ptr, ptr %n, align 8
  %vfn.i = getelementptr inbounds i8, ptr %vtable.i, i64 8
  %2 = load ptr, ptr %vfn.i, align 8
  %call.i = call noundef i64 %2(ptr noundef nonnull align 8 dereferenceable(20) %n)
  %m_id.i.i = getelementptr inbounds i8, ptr %n, i64 8
  %3 = load i32, ptr %m_id.i.i, align 8
  %call.i.i2 = call noundef zeroext i1 @_ZN6memory16is_out_of_memoryEv()
  br i1 %call.i.i2, label %_ZN13pdecl_manager13del_decl_coreEP5pdecl.exit, label %if.end.i.i

if.end.i.i:                                       ; preds = %if.then
  %m_free_ids.i.i = getelementptr inbounds i8, ptr %this, i64 24
  %4 = load ptr, ptr %m_free_ids.i.i, align 8
  %cmp.i.i.i = icmp eq ptr %4, null
  br i1 %cmp.i.i.i, label %if.then.i.i.i, label %lor.lhs.false.i.i.i

lor.lhs.false.i.i.i:                              ; preds = %if.end.i.i
  %arrayidx.i.i.i = getelementptr inbounds i8, ptr %4, i64 -4
  %5 = load i32, ptr %arrayidx.i.i.i, align 4
  %arrayidx4.i.i.i = getelementptr inbounds i8, ptr %4, i64 -8
  %6 = load i32, ptr %arrayidx4.i.i.i, align 4
  %cmp5.i.i.i = icmp eq i32 %5, %6
  br i1 %cmp5.i.i.i, label %if.then.i.i.i, label %_ZN6vectorIjLb0EjE9push_backERKj.exit.i.i

if.then.i.i.i:                                    ; preds = %lor.lhs.false.i.i.i, %if.end.i.i
  call void @_ZN6vectorIjLb0EjE13expand_vectorEv(ptr noundef nonnull align 8 dereferenceable(8) %m_free_ids.i.i)
  %.pre.i.i.i = load ptr, ptr %m_free_ids.i.i, align 8
  %arrayidx8.phi.trans.insert.i.i.i = getelementptr inbounds i8, ptr %.pre.i.i.i, i64 -4
  %.pre1.i.i.i = load i32, ptr %arrayidx8.phi.trans.insert.i.i.i, align 4
  br label %_ZN6vectorIjLb0EjE9push_backERKj.exit.i.i

_ZN6vectorIjLb0EjE9push_backERKj.exit.i.i:        ; preds = %if.then.i.i.i, %lor.lhs.false.i.i.i
  %7 = phi i32 [ %.pre1.i.i.i, %if.then.i.i.i ], [ %5, %lor.lhs.false.i.i.i ]
  %8 = phi ptr [ %.pre.i.i.i, %if.then.i.i.i ], [ %4, %lor.lhs.false.i.i.i ]
  %idx.ext.i.i.i = zext i32 %7 to i64
  %add.ptr.i.i.i = getelementptr inbounds i32, ptr %8, i64 %idx.ext.i.i.i
  store i32 %3, ptr %add.ptr.i.i.i, align 4
  %9 = load ptr, ptr %m_free_ids.i.i, align 8
  %arrayidx10.i.i.i = getelementptr inbounds i8, ptr %9, i64 -4
  %10 = load i32, ptr %arrayidx10.i.i.i, align 4
  %inc.i.i.i = add i32 %10, 1
  store i32 %inc.i.i.i, ptr %arrayidx10.i.i.i, align 4
  br label %_ZN13pdecl_manager13del_decl_coreEP5pdecl.exit

_ZN13pdecl_manager13del_decl_coreEP5pdecl.exit:   ; preds = %if.then, %_ZN6vectorIjLb0EjE9push_backERKj.exit.i.i
  %vtable3.i = load ptr, ptr %n, align 8
  %vfn4.i = getelementptr inbounds i8, ptr %vtable3.i, i64 16
  %11 = load ptr, ptr %vfn4.i, align 8
  call void %11(ptr noundef nonnull align 8 dereferenceable(20) %n, ptr noundef nonnull align 8 dereferenceable(192) %this)
  %vtable5.i = load ptr, ptr %n, align 8
  %vfn6.i = getelementptr inbounds i8, ptr %vtable5.i, i64 24
  %12 = load ptr, ptr %vfn6.i, align 8
  call void %12(ptr noundef nonnull align 8 dereferenceable(20) %n) #22
  %m_allocator.i = getelementptr inbounds i8, ptr %this, i64 8
  %13 = load ptr, ptr %m_allocator.i, align 8
  call void @_ZN22small_object_allocator10deallocateEmPv(ptr noundef nonnull align 8 dereferenceable(520) %13, i64 noundef %call.i, ptr noundef nonnull %n)
  br label %if.end

if.end:                                           ; preds = %_ZN13pdecl_manager13del_decl_coreEP5pdecl.exit, %entry
  ret ptr %1
}